target datalayout = "e-m:e-p270:32:32-p271:32:32-p272:64:64-i64:64-i128:128-f80:128-n8:16:32:64-S128"
target triple = "x86_64-pc-linux-gnu"

@hf_amqp_method_stream_consume_ticket = internal global i32 0, align 4
@hf_amqp_method_stream_consume_queue = internal global i32 0, align 4
@hf_amqp_method_stream_consume_consumer_tag = internal global i32 0, align 4
@hf_amqp_method_stream_consume_no_local = internal global i32 0, align 4
@hf_amqp_method_stream_consume_exclusive = internal global i32 0, align 4
@hf_amqp_method_stream_consume_nowait = internal global i32 0, align 4
@hf_amqp_method_stream_consume_filter = internal global i32 0, align 4

; Function Attrs: null_pointer_is_valid sspstrong uwtable
define internal i32 @dissect_amqp_0_9_method_stream_consume(ptr noundef %0, ptr noundef %1, i32 noundef %2, ptr noundef %3) #0 {
  %5 = alloca ptr, align 8
  %6 = alloca ptr, align 8
  %7 = alloca i32, align 4
  %8 = alloca ptr, align 8
  %9 = alloca ptr, align 8
  store ptr %0, ptr %5, align 8
  store ptr %1, ptr %6, align 8
  store i32 %2, ptr %7, align 4
  store ptr %3, ptr %8, align 8
  call void @llvm.lifetime.start.p0(i64 8, ptr %9) #11
  %10 = load ptr, ptr %8, align 8
  %11 = load i32, ptr @hf_amqp_method_stream_consume_ticket, align 4
  %12 = load ptr, ptr %5, align 8
  %13 = load i32, ptr %7, align 4
  %14 = call ptr @proto_tree_add_item(ptr noundef %10, i32 noundef %11, ptr noundef %12, i32 noundef %13, i32 noundef 2, i32 noundef 0)
  %15 = load i32, ptr %7, align 4
  %16 = add i32 %15, 2
  store i32 %16, ptr %7, align 4
  %17 = load ptr, ptr %8, align 8
  %18 = load i32, ptr @hf_amqp_method_stream_consume_queue, align 4
  %19 = load ptr, ptr %5, align 8
  %20 = load i32, ptr %7, align 4
  %21 = add i32 %20, 1
  %22 = load ptr, ptr %5, align 8
  %23 = load i32, ptr %7, align 4
  %24 = call zeroext i8 @tvb_get_uint8(ptr noundef %22, i32 noundef %23)
  %25 = zext i8 %24 to i32
  %26 = call ptr @proto_tree_add_item(ptr noundef %17, i32 noundef %18, ptr noundef %19, i32 noundef %21, i32 noundef %25, i32 noundef 0)
  %27 = load ptr, ptr %5, align 8
  %28 = load i32, ptr %7, align 4
  %29 = call zeroext i8 @tvb_get_uint8(ptr noundef %27, i32 noundef %28)
  %30 = zext i8 %29 to i32
  %31 = add i32 1, %30
  %32 = load i32, ptr %7, align 4
  %33 = add i32 %32, %31
  store i32 %33, ptr %7, align 4
  %34 = load ptr, ptr %8, align 8
  %35 = load i32, ptr @hf_amqp_method_stream_consume_consumer_tag, align 4
  %36 = load ptr, ptr %5, align 8
  %37 = load i32, ptr %7, align 4
  %38 = add i32 %37, 1
  %39 = load ptr, ptr %5, align 8
  %40 = load i32, ptr %7, align 4
  %41 = call zeroext i8 @tvb_get_uint8(ptr noundef %39, i32 noundef %40)
  %42 = zext i8 %41 to i32
  %43 = call ptr @proto_tree_add_item(ptr noundef %34, i32 noundef %35, ptr noundef %36, i32 noundef %38, i32 noundef %42, i32 noundef 0)
  %44 = load ptr, ptr %5, align 8
  %45 = load i32, ptr %7, align 4
  %46 = call zeroext i8 @tvb_get_uint8(ptr noundef %44, i32 noundef %45)
  %47 = zext i8 %46 to i32
  %48 = add i32 1, %47
  %49 = load i32, ptr %7, align 4
  %50 = add i32 %49, %48
  store i32 %50, ptr %7, align 4
  %51 = load ptr, ptr %8, align 8
  %52 = load i32, ptr @hf_amqp_method_stream_consume_no_local, align 4
  %53 = load ptr, ptr %5, align 8
  %54 = load i32, ptr %7, align 4
  %55 = call ptr @proto_tree_add_item(ptr noundef %51, i32 noundef %52, ptr noundef %53, i32 noundef %54, i32 noundef 1, i32 noundef 0)
  %56 = load ptr, ptr %8, align 8
  %57 = load i32, ptr @hf_amqp_method_stream_consume_exclusive, align 4
  %58 = load ptr, ptr %5, align 8
  %59 = load i32, ptr %7, align 4
  %60 = call ptr @proto_tree_add_item(ptr noundef %56, i32 noundef %57, ptr noundef %58, i32 noundef %59, i32 noundef 1, i32 noundef 0)
  %61 = load ptr, ptr %8, align 8
  %62 = load i32, ptr @hf_amqp_method_stream_consume_nowait, align 4
  %63 = load ptr, ptr %5, align 8
  %64 = load i32, ptr %7, align 4
  %65 = call ptr @proto_tree_add_item(ptr noundef %61, i32 noundef %62, ptr noundef %63, i32 noundef %64, i32 noundef 1, i32 noundef 0)
  %66 = load i32, ptr %7, align 4
  %67 = add i32 %66, 1
  store i32 %67, ptr %7, align 4
  %68 = load ptr, ptr %8, align 8
  %69 = load i32, ptr @hf_amqp_method_stream_consume_filter, align 4
  %70 = load ptr, ptr %5, align 8
  %71 = load i32, ptr %7, align 4
  %72 = add i32 %71, 4
  %73 = load ptr, ptr %5, align 8
  %74 = load i32, ptr %7, align 4
  %75 = call i32 @tvb_get_ntohl(ptr noundef %73, i32 noundef %74)
  %76 = call ptr @proto_tree_add_item(ptr noundef %68, i32 noundef %69, ptr noundef %70, i32 noundef %72, i32 noundef %75, i32 noundef 0)
  store ptr %76, ptr %9, align 8
  %77 = load ptr, ptr %5, align 8
  %78 = load ptr, ptr %6, align 8
  %79 = load i32, ptr %7, align 4
  %80 = add i32 %79, 4
  %81 = load ptr, ptr %5, align 8
  %82 = load i32, ptr %7, align 4
  %83 = call i32 @tvb_get_ntohl(ptr noundef %81, i32 noundef %82)
  %84 = load ptr, ptr %9, align 8
  call void @dissect_amqp_0_9_field_table(ptr noundef %77, ptr noundef %78, i32 noundef %80, i32 noundef %83, ptr noundef %84)
  %85 = load ptr, ptr %5, align 8
  %86 = load i32, ptr %7, align 4
  %87 = call i32 @tvb_get_ntohl(ptr noundef %85, i32 noundef %86)
  %88 = add i32 4, %87
  %89 = load i32, ptr %7, align 4
  %90 = add i32 %89, %88
  store i32 %90, ptr %7, align 4
  %91 = load i32, ptr %7, align 4
  call void @llvm.lifetime.end.p0(i64 8, ptr %9) #11
  ret i32 %91
}